target datalayout = "e-m:e-p270:32:32-p271:32:32-p272:64:64-i64:64-i128:128-f80:128-n8:16:32:64-S128"
target triple = "x86_64-unknown-linux-gnu"

%struct.anon.0 = type { ptr }
%struct.CoroutineQSList = type { ptr }
%struct.Notifier = type { ptr, %struct.anon }
%struct.anon = type { ptr, ptr }
%struct.Coroutine = type { ptr, ptr, ptr, %struct.anon.1, i64, ptr, ptr, %struct.anon.2, %struct.anon.3, %struct.anon.4 }
%struct.anon.1 = type { ptr }
%struct.anon.2 = type { ptr }
%struct.anon.3 = type { ptr, ptr }
%struct.anon.4 = type { ptr }

@release_pool_size = internal global i32 0, align 4
@.str = private unnamed_addr constant [30 x i8] c"../qemu/util/qemu-coroutine.c\00", align 1
@__func__.qemu_coroutine_create = private unnamed_addr constant [22 x i8] c"qemu_coroutine_create\00", align 1
@release_pool = internal global %struct.anon.0 zeroinitializer, align 8
@co_tls_alloc_pool = internal thread_local global %struct.CoroutineQSList zeroinitializer, align 8
@co_tls_coroutine_pool_cleanup_notifier = internal thread_local global %struct.Notifier zeroinitializer, align 8
@co_tls_alloc_pool_size = internal thread_local global i32 0, align 4

; Function Attrs: nounwind sspstrong uwtable
define internal i32 @get_alloc_pool_size() #0 {
entry:
  call void asm sideeffect "", "~{dirflag},~{fpsr},~{flags}"() #7, !srcloc !10
  %0 = call align 4 ptr @llvm.threadlocal.address.p0(ptr align 4 @co_tls_alloc_pool_size)
  %1 = load i32, ptr %0, align 4
  ret i32 %1
}

; Function Attrs: nounwind sspstrong uwtable
define internal void @set_alloc_pool_size(i32 noundef %v) #0 {
entry:
  %v.addr = alloca i32, align 4
  store i32 %v, ptr %v.addr, align 4
  call void asm sideeffect "", "~{dirflag},~{fpsr},~{flags}"() #7, !srcloc !9
  %0 = load i32, ptr %v.addr, align 4
  %1 = call align 4 ptr @llvm.threadlocal.address.p0(ptr align 4 @co_tls_alloc_pool_size)
  store i32 %0, ptr %1, align 4
  ret void
}

; Function Attrs: nounwind sspstrong uwtable
define internal ptr @get_ptr_coroutine_pool_cleanup_notifier() #0 {
entry:
  %ptr = alloca ptr, align 8
  %0 = call align 8 ptr @llvm.threadlocal.address.p0(ptr align 8 @co_tls_coroutine_pool_cleanup_notifier)
  store ptr %0, ptr %ptr, align 8
  %1 = load ptr, ptr %ptr, align 8
  call void asm sideeffect "", "=*rm,0,~{dirflag},~{fpsr},~{flags}"(ptr elementtype(ptr) %ptr, ptr %1) #7, !srcloc !6
  %2 = load ptr, ptr %ptr, align 8
  ret ptr %2
}

; Function Attrs: nounwind sspstrong uwtable
define internal ptr @get_ptr_alloc_pool() #0 {
entry:
  %ptr = alloca ptr, align 8
  %0 = call align 8 ptr @llvm.threadlocal.address.p0(ptr align 8 @co_tls_alloc_pool)
  store ptr %0, ptr %ptr, align 8
  %1 = load ptr, ptr %ptr, align 8
  call void asm sideeffect "", "=*rm,0,~{dirflag},~{fpsr},~{flags}"(ptr elementtype(ptr) %ptr, ptr %1) #7, !srcloc !5
  %2 = load ptr, ptr %ptr, align 8
  ret ptr %2
}

; Function Attrs: nounwind sspstrong uwtable
define dso_local ptr @qemu_coroutine_create(ptr noundef %entry1, ptr noundef %opaque) #0 {
entry:
  %entry.addr = alloca ptr, align 8
  %opaque.addr = alloca ptr, align 8
  %co = alloca ptr, align 8
  %alloc_pool = alloca ptr, align 8
  %notifier = alloca ptr, align 8
  %tmp = alloca i32, align 4
  %tmp7 = alloca i32, align 4
  %.atomictmp = alloca i32, align 4
  %atomic-temp = alloca i32, align 4
  %tmp14 = alloca ptr, align 8
  %tmp15 = alloca ptr, align 8
  %.atomictmp16 = alloca ptr, align 8
  %atomic-temp17 = alloca ptr, align 8
  %elm = alloca ptr, align 8
  store ptr %entry1, ptr %entry.addr, align 8
  store ptr %opaque, ptr %opaque.addr, align 8
  store ptr null, ptr %co, align 8
  %call = call ptr @get_ptr_alloc_pool()
  store ptr %call, ptr %alloc_pool, align 8
  %0 = load ptr, ptr %alloc_pool, align 8
  %slh_first = getelementptr inbounds %struct.CoroutineQSList, ptr %0, i32 0, i32 0
  %1 = load ptr, ptr %slh_first, align 8
  store ptr %1, ptr %co, align 8
  %2 = load ptr, ptr %co, align 8
  %tobool = icmp ne ptr %2, null
  br i1 %tobool, label %if.end22, label %if.then

if.then:                                          ; preds = %entry
  %3 = load i32, ptr @release_pool_size, align 4
  %cmp = icmp ugt i32 %3, 64
  br i1 %cmp, label %if.then2, label %if.end21

if.then2:                                         ; preds = %if.then
  %call3 = call ptr @get_ptr_coroutine_pool_cleanup_notifier()
  store ptr %call3, ptr %notifier, align 8
  %4 = load ptr, ptr %notifier, align 8
  %notify = getelementptr inbounds %struct.Notifier, ptr %4, i32 0, i32 0
  %5 = load ptr, ptr %notify, align 8
  %tobool4 = icmp ne ptr %5, null
  br i1 %tobool4, label %if.end, label %if.then5

if.then5:                                         ; preds = %if.then2
  %6 = load ptr, ptr %notifier, align 8
  %notify6 = getelementptr inbounds %struct.Notifier, ptr %6, i32 0, i32 0
  store ptr @coroutine_pool_cleanup, ptr %notify6, align 8
  %7 = load ptr, ptr %notifier, align 8
  call void @qemu_thread_atexit_add(ptr noundef %7)
  br label %if.end

if.end:                                           ; preds = %if.then5, %if.then2
  br label %while.cond

while.cond:                                       ; preds = %do.end, %if.end
  br i1 false, label %while.body, label %while.end

while.body:                                       ; preds = %while.cond
  br label %do.body

do.body:                                          ; preds = %while.body
  call void @g_assertion_message_expr(ptr noundef null, ptr noundef @.str, i32 noundef 77, ptr noundef @__func__.qemu_coroutine_create, ptr noundef null) #6
  unreachable

do.end:                                           ; No predecessors!
  br label %while.cond

while.end:                                        ; preds = %while.cond
  store i32 0, ptr %.atomictmp, align 4
  %8 = load i32, ptr %.atomictmp, align 4
  %9 = atomicrmw xchg ptr @release_pool_size, i32 %8 seq_cst, align 4
  store i32 %9, ptr %atomic-temp, align 4
  %10 = load i32, ptr %atomic-temp, align 4
  store i32 %10, ptr %tmp7, align 4
  %11 = load i32, ptr %tmp7, align 4
  store i32 %11, ptr %tmp, align 4
  %12 = load i32, ptr %tmp, align 4
  call void @set_alloc_pool_size(i32 noundef %12)
  br label %do.body8

do.body8:                                         ; preds = %while.end
  br label %while.cond9

while.cond9:                                      ; preds = %do.end12, %do.body8
  br i1 false, label %while.body10, label %while.end13

while.body10:                                     ; preds = %while.cond9
  br label %do.body11

do.body11:                                        ; preds = %while.body10
  call void @g_assertion_message_expr(ptr noundef null, ptr noundef @.str, i32 noundef 78, ptr noundef @__func__.qemu_coroutine_create, ptr noundef null) #6
  unreachable

do.end12:                                         ; No predecessors!
  br label %while.cond9

while.end13:                                      ; preds = %while.cond9
  store ptr null, ptr %.atomictmp16, align 8
  %13 = load i64, ptr %.atomictmp16, align 8
  %14 = atomicrmw xchg ptr @release_pool, i64 %13 seq_cst, align 8
  store i64 %14, ptr %atomic-temp17, align 8
  %15 = load ptr, ptr %atomic-temp17, align 8
  store ptr %15, ptr %tmp15, align 8
  %16 = load ptr, ptr %tmp15, align 8
  store ptr %16, ptr %tmp14, align 8
  %17 = load ptr, ptr %tmp14, align 8
  %18 = load ptr, ptr %alloc_pool, align 8
  %slh_first18 = getelementptr inbounds %struct.CoroutineQSList, ptr %18, i32 0, i32 0
  store ptr %17, ptr %slh_first18, align 8
  br label %do.end19

do.end19:                                         ; preds = %while.end13
  %19 = load ptr, ptr %alloc_pool, align 8
  %slh_first20 = getelementptr inbounds %struct.CoroutineQSList, ptr %19, i32 0, i32 0
  %20 = load ptr, ptr %slh_first20, align 8
  store ptr %20, ptr %co, align 8
  br label %if.end21

if.end21:                                         ; preds = %do.end19, %if.then
  br label %if.end22

if.end22:                                         ; preds = %if.end21, %entry
  %21 = load ptr, ptr %co, align 8
  %tobool23 = icmp ne ptr %21, null
  br i1 %tobool23, label %if.then24, label %if.end32

if.then24:                                        ; preds = %if.end22
  br label %do.body25

do.body25:                                        ; preds = %if.then24
  %22 = load ptr, ptr %alloc_pool, align 8
  %slh_first26 = getelementptr inbounds %struct.CoroutineQSList, ptr %22, i32 0, i32 0
  %23 = load ptr, ptr %slh_first26, align 8
  store ptr %23, ptr %elm, align 8
  %24 = load ptr, ptr %elm, align 8
  %pool_next = getelementptr inbounds %struct.Coroutine, ptr %24, i32 0, i32 3
  %sle_next = getelementptr inbounds %struct.anon.1, ptr %pool_next, i32 0, i32 0
  %25 = load ptr, ptr %sle_next, align 8
  %26 = load ptr, ptr %alloc_pool, align 8
  %slh_first27 = getelementptr inbounds %struct.CoroutineQSList, ptr %26, i32 0, i32 0
  store ptr %25, ptr %slh_first27, align 8
  %27 = load ptr, ptr %elm, align 8
  %pool_next28 = getelementptr inbounds %struct.Coroutine, ptr %27, i32 0, i32 3
  %sle_next29 = getelementptr inbounds %struct.anon.1, ptr %pool_next28, i32 0, i32 0
  store ptr null, ptr %sle_next29, align 8
  br label %do.end30

do.end30:                                         ; preds = %do.body25
  %call31 = call i32 @get_alloc_pool_size()
  %sub = sub i32 %call31, 1
  call void @set_alloc_pool_size(i32 noundef %sub)
  br label %if.end32

if.end32:                                         ; preds = %do.end30, %if.end22
  %28 = load ptr, ptr %co, align 8
  %tobool33 = icmp ne ptr %28, null
  br i1 %tobool33, label %if.end36, label %if.then34

if.then34:                                        ; preds = %if.end32
  %call35 = call ptr @qemu_coroutine_new()
  store ptr %call35, ptr %co, align 8
  br label %if.end36

if.end36:                                         ; preds = %if.then34, %if.end32
  %29 = load ptr, ptr %entry.addr, align 8
  %30 = load ptr, ptr %co, align 8
  %entry37 = getelementptr inbounds %struct.Coroutine, ptr %30, i32 0, i32 0
  store ptr %29, ptr %entry37, align 8
  %31 = load ptr, ptr %opaque.addr, align 8
  %32 = load ptr, ptr %co, align 8
  %entry_arg = getelementptr inbounds %struct.Coroutine, ptr %32, i32 0, i32 1
  store ptr %31, ptr %entry_arg, align 8
  br label %do.body38

do.body38:                                        ; preds = %if.end36
  %33 = load ptr, ptr %co, align 8
  %co_queue_wakeup = getelementptr inbounds %struct.Coroutine, ptr %33, i32 0, i32 8
  %sqh_first = getelementptr inbounds %struct.anon.3, ptr %co_queue_wakeup, i32 0, i32 0
  store ptr null, ptr %sqh_first, align 8
  %34 = load ptr, ptr %co, align 8
  %co_queue_wakeup39 = getelementptr inbounds %struct.Coroutine, ptr %34, i32 0, i32 8
  %sqh_first40 = getelementptr inbounds %struct.anon.3, ptr %co_queue_wakeup39, i32 0, i32 0
  %35 = load ptr, ptr %co, align 8
  %co_queue_wakeup41 = getelementptr inbounds %struct.Coroutine, ptr %35, i32 0, i32 8
  %sqh_last = getelementptr inbounds %struct.anon.3, ptr %co_queue_wakeup41, i32 0, i32 1
  store ptr %sqh_first40, ptr %sqh_last, align 8
  br label %do.end42

do.end42:                                         ; preds = %do.body38
  %36 = load ptr, ptr %co, align 8
  ret ptr %36
}