; Function Attrs: nounwind sspstrong uwtable
define dso_local noundef ptr @qemu_coroutine_create(ptr noundef %entry1, ptr noundef %opaque) local_unnamed_addr #0 {
entry:
  %ptr.i16 = alloca ptr, align 8
  %ptr.i = alloca ptr, align 8
  call void @llvm.lifetime.start.p0(i64 8, ptr nonnull %ptr.i)
  %0 = tail call align 8 ptr @llvm.threadlocal.address.p0(ptr align 8 @co_tls_alloc_pool)
  store ptr %0, ptr %ptr.i, align 8
  call void asm sideeffect "", "=*rm,0,~{dirflag},~{fpsr},~{flags}"(ptr nonnull elementtype(ptr) %ptr.i, ptr nonnull %0) #10, !srcloc !5
  %1 = load ptr, ptr %ptr.i, align 8
  call void @llvm.lifetime.end.p0(i64 8, ptr nonnull %ptr.i)
  %2 = load ptr, ptr %1, align 8
  %tobool = icmp eq ptr %2, null
  %3 = load i32, ptr @release_pool_size, align 4
  %cmp = icmp ugt i32 %3, 64
  %or.cond = select i1 %tobool, i1 %cmp, i1 false
  br i1 %or.cond, label %if.then2, label %if.end22

if.then2:                                         ; preds = %entry
  call void @llvm.lifetime.start.p0(i64 8, ptr nonnull %ptr.i16)
  %4 = call align 8 ptr @llvm.threadlocal.address.p0(ptr align 8 @co_tls_coroutine_pool_cleanup_notifier)
  store ptr %4, ptr %ptr.i16, align 8
  call void asm sideeffect "", "=*rm,0,~{dirflag},~{fpsr},~{flags}"(ptr nonnull elementtype(ptr) %ptr.i16, ptr nonnull %4) #10, !srcloc !6
  %5 = load ptr, ptr %ptr.i16, align 8
  call void @llvm.lifetime.end.p0(i64 8, ptr nonnull %ptr.i16)
  %6 = load ptr, ptr %5, align 8
  %tobool4.not = icmp eq ptr %6, null
  br i1 %tobool4.not, label %if.then5, label %while.end

if.then5:                                         ; preds = %if.then2
  store ptr @coroutine_pool_cleanup, ptr %5, align 8
  call void @qemu_thread_atexit_add(ptr noundef nonnull %5) #10
  br label %while.end

while.end:                                        ; preds = %if.then5, %if.then2
  %7 = atomicrmw xchg ptr @release_pool_size, i32 0 seq_cst, align 4
  call void asm sideeffect "", "~{dirflag},~{fpsr},~{flags}"() #10, !srcloc !7
  %8 = call align 4 ptr @llvm.threadlocal.address.p0(ptr align 4 @co_tls_alloc_pool_size)
  store i32 %7, ptr %8, align 4
  %9 = atomicrmw xchg ptr @release_pool, i64 0 seq_cst, align 8
  %10 = inttoptr i64 %9 to ptr
  store ptr %10, ptr %1, align 8
  br label %if.end22

if.end22:                                         ; preds = %while.end, %entry
  %11 = phi ptr [ %10, %while.end ], [ %2, %entry ]
  %tobool23.not = icmp eq ptr %11, null
  br i1 %tobool23.not, label %if.then34, label %do.body25

do.body25:                                        ; preds = %if.end22
  %pool_next = getelementptr inbounds nuw i8, ptr %11, i64 24
  %12 = load ptr, ptr %pool_next, align 8
  store ptr %12, ptr %1, align 8
  store ptr null, ptr %pool_next, align 8
  call void asm sideeffect "", "~{dirflag},~{fpsr},~{flags}"() #10, !srcloc !8
  %13 = call align 4 ptr @llvm.threadlocal.address.p0(ptr align 4 @co_tls_alloc_pool_size)
  %14 = load i32, ptr %13, align 4
  %sub = add i32 %14, -1
  call void asm sideeffect "", "~{dirflag},~{fpsr},~{flags}"() #10, !srcloc !7
  store i32 %sub, ptr %13, align 4
  br label %if.end36

if.then34:                                        ; preds = %if.end22
  %call35 = call ptr @qemu_coroutine_new() #10
  br label %if.end36

if.end36:                                         ; preds = %do.body25, %if.then34
  %co.1 = phi ptr [ %11, %do.body25 ], [ %call35, %if.then34 ]
  store ptr %entry1, ptr %co.1, align 8
  %entry_arg = getelementptr inbounds nuw i8, ptr %co.1, i64 8
  store ptr %opaque, ptr %entry_arg, align 8
  %co_queue_wakeup = getelementptr inbounds nuw i8, ptr %co.1, i64 64
  store ptr null, ptr %co_queue_wakeup, align 8
  %sqh_last = getelementptr inbounds nuw i8, ptr %co.1, i64 72
  store ptr %co_queue_wakeup, ptr %sqh_last, align 8
  ret ptr %co.1
}